(dp0
S'James Lee'
p1
ccopy_reg
_reconstructor
p2
(cathletelist
AthleteList
p3
c__builtin__
list
p4
(lp5
S'2-34'
p6
aS'3:21'
p7
aS'2.34'
p8
aS'2.45'
p9
aS'3.01'
p10
aS'2:01'
p11
aS'2:01'
p12
aS'3:10'
p13
aS'2-22'
p14
aS'2-01'
p15
aS'2.01'
p16
aS'2:16'
p17
atp18
Rp19
(dp20
S'dob'
p21
S'2002-3-14'
p22
sS'name'
p23
g1
sbsS'Sarah Sweeney'
p24
g2
(g3
g4
(lp25
S'2:58'
p26
aS'2.58'
p27
aS'2:39'
p28
aS'2-25'
p29
aS'2-55'
p30
aS'2:54'
p31
aS'2.18'
p32
aS'2:55'
p33
aS'2:55'
p34
aS'2:22'
p35
aS'2-21'
p36
aS'2.22'
p37
atp38
Rp39
(dp40
g21
S'2002-6-17'
p41
sg23
g24
sbs.